target datalayout = "e-m:e-p270:32:32-p271:32:32-p272:64:64-i64:64-i128:128-f80:128-n8:16:32:64-S128"
target triple = "x86_64-pc-linux-gnu"

; Function Attrs: nounwind uwtable
define internal i32 @traverse_string(ptr noundef %0, i32 noundef %1, i32 noundef %2, ptr noundef %3, ptr noundef %4) #0 {
  %6 = alloca i32, align 4
  %7 = alloca ptr, align 8
  %8 = alloca i32, align 4
  %9 = alloca i32, align 4
  %10 = alloca ptr, align 8
  %11 = alloca ptr, align 8
  %12 = alloca i64, align 8
  %13 = alloca i32, align 4
  %14 = alloca i32, align 4
  store ptr %0, ptr %7, align 8, !tbaa !8
  store i32 %1, ptr %8, align 4, !tbaa !10
  store i32 %2, ptr %9, align 4, !tbaa !10
  store ptr %3, ptr %10, align 8, !tbaa !14
  store ptr %4, ptr %11, align 8, !tbaa !14
  call void @llvm.lifetime.start.p0(i64 8, ptr %12) #5
  call void @llvm.lifetime.start.p0(i64 4, ptr %13) #5
  br label %15

15:                                               ; preds = %108, %5
  %16 = load i32, ptr %8, align 4, !tbaa !10
  %17 = icmp ne i32 %16, 0
  br i1 %17, label %18, label %109

18:                                               ; preds = %15
  %19 = load i32, ptr %9, align 4, !tbaa !10
  %20 = icmp eq i32 %19, 4097
  br i1 %20, label %21, label %28

21:                                               ; preds = %18
  %22 = load ptr, ptr %7, align 8, !tbaa !8
  %23 = getelementptr inbounds nuw i8, ptr %22, i32 1
  store ptr %23, ptr %7, align 8, !tbaa !8
  %24 = load i8, ptr %22, align 1, !tbaa !17
  %25 = zext i8 %24 to i64
  store i64 %25, ptr %12, align 8, !tbaa !12
  %26 = load i32, ptr %8, align 4, !tbaa !10
  %27 = add nsw i32 %26, -1
  store i32 %27, ptr %8, align 4, !tbaa !10
  br label %95

28:                                               ; preds = %18
  %29 = load i32, ptr %9, align 4, !tbaa !10
  %30 = icmp eq i32 %29, 4098
  br i1 %30, label %31, label %46

31:                                               ; preds = %28
  %32 = load ptr, ptr %7, align 8, !tbaa !8
  %33 = getelementptr inbounds nuw i8, ptr %32, i32 1
  store ptr %33, ptr %7, align 8, !tbaa !8
  %34 = load i8, ptr %32, align 1, !tbaa !17
  %35 = zext i8 %34 to i32
  %36 = shl i32 %35, 8
  %37 = sext i32 %36 to i64
  store i64 %37, ptr %12, align 8, !tbaa !12
  %38 = load ptr, ptr %7, align 8, !tbaa !8
  %39 = getelementptr inbounds nuw i8, ptr %38, i32 1
  store ptr %39, ptr %7, align 8, !tbaa !8
  %40 = load i8, ptr %38, align 1, !tbaa !17
  %41 = zext i8 %40 to i64
  %42 = load i64, ptr %12, align 8, !tbaa !12
  %43 = or i64 %42, %41
  store i64 %43, ptr %12, align 8, !tbaa !12
  %44 = load i32, ptr %8, align 4, !tbaa !10
  %45 = sub nsw i32 %44, 2
  store i32 %45, ptr %8, align 4, !tbaa !10
  br label %94

46:                                               ; preds = %28
  %47 = load i32, ptr %9, align 4, !tbaa !10
  %48 = icmp eq i32 %47, 4100
  br i1 %48, label %49, label %78

49:                                               ; preds = %46
  %50 = load ptr, ptr %7, align 8, !tbaa !8
  %51 = getelementptr inbounds nuw i8, ptr %50, i32 1
  store ptr %51, ptr %7, align 8, !tbaa !8
  %52 = load i8, ptr %50, align 1, !tbaa !17
  %53 = zext i8 %52 to i64
  %54 = shl i64 %53, 24
  store i64 %54, ptr %12, align 8, !tbaa !12
  %55 = load ptr, ptr %7, align 8, !tbaa !8
  %56 = getelementptr inbounds nuw i8, ptr %55, i32 1
  store ptr %56, ptr %7, align 8, !tbaa !8
  %57 = load i8, ptr %55, align 1, !tbaa !17
  %58 = zext i8 %57 to i64
  %59 = shl i64 %58, 16
  %60 = load i64, ptr %12, align 8, !tbaa !12
  %61 = or i64 %60, %59
  store i64 %61, ptr %12, align 8, !tbaa !12
  %62 = load ptr, ptr %7, align 8, !tbaa !8
  %63 = getelementptr inbounds nuw i8, ptr %62, i32 1
  store ptr %63, ptr %7, align 8, !tbaa !8
  %64 = load i8, ptr %62, align 1, !tbaa !17
  %65 = zext i8 %64 to i32
  %66 = shl i32 %65, 8
  %67 = sext i32 %66 to i64
  %68 = load i64, ptr %12, align 8, !tbaa !12
  %69 = or i64 %68, %67
  store i64 %69, ptr %12, align 8, !tbaa !12
  %70 = load ptr, ptr %7, align 8, !tbaa !8
  %71 = getelementptr inbounds nuw i8, ptr %70, i32 1
  store ptr %71, ptr %7, align 8, !tbaa !8
  %72 = load i8, ptr %70, align 1, !tbaa !17
  %73 = zext i8 %72 to i64
  %74 = load i64, ptr %12, align 8, !tbaa !12
  %75 = or i64 %74, %73
  store i64 %75, ptr %12, align 8, !tbaa !12
  %76 = load i32, ptr %8, align 4, !tbaa !10
  %77 = sub nsw i32 %76, 4
  store i32 %77, ptr %8, align 4, !tbaa !10
  br label %93

78:                                               ; preds = %46
  %79 = load ptr, ptr %7, align 8, !tbaa !8
  %80 = load i32, ptr %8, align 4, !tbaa !10
  %81 = call i32 @UTF8_getc(ptr noundef %79, i32 noundef %80, ptr noundef %12)
  store i32 %81, ptr %13, align 4, !tbaa !10
  %82 = load i32, ptr %13, align 4, !tbaa !10
  %83 = icmp slt i32 %82, 0
  br i1 %83, label %84, label %85

84:                                               ; preds = %78
  store i32 -1, ptr %6, align 4
  store i32 1, ptr %14, align 4
  br label %110

85:                                               ; preds = %78
  %86 = load i32, ptr %13, align 4, !tbaa !10
  %87 = load i32, ptr %8, align 4, !tbaa !10
  %88 = sub nsw i32 %87, %86
  store i32 %88, ptr %8, align 4, !tbaa !10
  %89 = load i32, ptr %13, align 4, !tbaa !10
  %90 = load ptr, ptr %7, align 8, !tbaa !8
  %91 = sext i32 %89 to i64
  %92 = getelementptr inbounds i8, ptr %90, i64 %91
  store ptr %92, ptr %7, align 8, !tbaa !8
  br label %93

93:                                               ; preds = %85, %49
  br label %94

94:                                               ; preds = %93, %31
  br label %95

95:                                               ; preds = %94, %21
  %96 = load ptr, ptr %10, align 8, !tbaa !14
  %97 = icmp ne ptr %96, null
  br i1 %97, label %98, label %108

98:                                               ; preds = %95
  %99 = load ptr, ptr %10, align 8, !tbaa !14
  %100 = load i64, ptr %12, align 8, !tbaa !12
  %101 = load ptr, ptr %11, align 8, !tbaa !14
  %102 = call i32 %99(i64 noundef %100, ptr noundef %101)
  store i32 %102, ptr %13, align 4, !tbaa !10
  %103 = load i32, ptr %13, align 4, !tbaa !10
  %104 = icmp sle i32 %103, 0
  br i1 %104, label %105, label %107

105:                                              ; preds = %98
  %106 = load i32, ptr %13, align 4, !tbaa !10
  store i32 %106, ptr %6, align 4
  store i32 1, ptr %14, align 4
  br label %110

107:                                              ; preds = %98
  br label %108

108:                                              ; preds = %107, %95
  br label %15, !llvm.loop !22

109:                                              ; preds = %15
  store i32 1, ptr %6, align 4
  store i32 1, ptr %14, align 4
  br label %110

110:                                              ; preds = %109, %105, %84
  call void @llvm.lifetime.end.p0(i64 4, ptr %13) #5
  call void @llvm.lifetime.end.p0(i64 8, ptr %12) #5
  %111 = load i32, ptr %6, align 4
  ret i32 %111
}